target datalayout = "e-m:e-p270:32:32-p271:32:32-p272:64:64-i64:64-i128:128-f80:128-n8:16:32:64-S128"
target triple = "x86_64-pc-linux-gnu"

%struct.case_infos_t = type { ptr, i64, i64, i64 }
%struct.case_info = type { i32, ptr, i32, ptr }

@kwLine = internal global i32 1, align 4
@stderr = external global ptr, align 8
@.str.22 = private unnamed_addr constant [20 x i8] c"realloc failed: %s\0A\00", align 1
@.str.23 = private unnamed_addr constant [54 x i8] c"Case with neither guard nor action, line %d - ignored\00", align 1

; Function Attrs: inlinehint nounwind uwtable
define internal i32 @case_infos_try_append(ptr noundef %0, ptr noundef byval(%struct.case_info) align 8 %1) #6 {
  %3 = alloca i32, align 4
  %4 = alloca ptr, align 8
  %5 = alloca i64, align 8
  %6 = alloca i32, align 4
  %7 = alloca ptr, align 8
  %8 = alloca i64, align 8
  %9 = alloca i64, align 8
  %10 = alloca i64, align 8
  store ptr %0, ptr %4, align 8, !tbaa !10
  %11 = load ptr, ptr %4, align 8, !tbaa !10
  %12 = getelementptr inbounds nuw %struct.case_infos_t, ptr %11, i32 0, i32 2
  %13 = load i64, ptr %12, align 8, !tbaa !44
  %14 = load ptr, ptr %4, align 8, !tbaa !10
  %15 = getelementptr inbounds nuw %struct.case_infos_t, ptr %14, i32 0, i32 3
  %16 = load i64, ptr %15, align 8, !tbaa !45
  %17 = icmp eq i64 %13, %16
  br i1 %17, label %18, label %112

18:                                               ; preds = %2
  call void @llvm.lifetime.start.p0(i64 8, ptr %5) #12
  %19 = load ptr, ptr %4, align 8, !tbaa !10
  %20 = getelementptr inbounds nuw %struct.case_infos_t, ptr %19, i32 0, i32 3
  %21 = load i64, ptr %20, align 8, !tbaa !45
  %22 = icmp eq i64 %21, 0
  br i1 %22, label %23, label %24

23:                                               ; preds = %18
  br label %29

24:                                               ; preds = %18
  %25 = load ptr, ptr %4, align 8, !tbaa !10
  %26 = getelementptr inbounds nuw %struct.case_infos_t, ptr %25, i32 0, i32 3
  %27 = load i64, ptr %26, align 8, !tbaa !45
  %28 = mul i64 %27, 2
  br label %29

29:                                               ; preds = %24, %23
  %30 = phi i64 [ 1, %23 ], [ %28, %24 ]
  store i64 %30, ptr %5, align 8, !tbaa !22
  %31 = load i64, ptr %5, align 8, !tbaa !22
  %32 = udiv i64 -1, %31
  %33 = icmp ult i64 %32, 32
  br i1 %33, label %34, label %35

34:                                               ; preds = %29
  store i32 34, ptr %3, align 4
  store i32 1, ptr %6, align 4
  br label %109

35:                                               ; preds = %29
  call void @llvm.lifetime.start.p0(i64 8, ptr %7) #12
  %36 = load ptr, ptr %4, align 8, !tbaa !10
  %37 = getelementptr inbounds nuw %struct.case_infos_t, ptr %36, i32 0, i32 0
  %38 = load ptr, ptr %37, align 8, !tbaa !46
  %39 = load i64, ptr %5, align 8, !tbaa !22
  %40 = mul i64 %39, 32
  %41 = call ptr @realloc(ptr noundef %38, i64 noundef %40) #17
  store ptr %41, ptr %7, align 8, !tbaa !10
  %42 = load ptr, ptr %7, align 8, !tbaa !10
  %43 = icmp eq ptr %42, null
  br i1 %43, label %44, label %45

44:                                               ; preds = %35
  store i32 12, ptr %3, align 4
  store i32 1, ptr %6, align 4
  br label %108

45:                                               ; preds = %35
  %46 = load ptr, ptr %7, align 8, !tbaa !10
  %47 = load ptr, ptr %4, align 8, !tbaa !10
  %48 = getelementptr inbounds nuw %struct.case_infos_t, ptr %47, i32 0, i32 3
  %49 = load i64, ptr %48, align 8, !tbaa !45
  %50 = getelementptr inbounds nuw %struct.case_info, ptr %46, i64 %49
  %51 = load i64, ptr %5, align 8, !tbaa !22
  %52 = load ptr, ptr %4, align 8, !tbaa !10
  %53 = getelementptr inbounds nuw %struct.case_infos_t, ptr %52, i32 0, i32 3
  %54 = load i64, ptr %53, align 8, !tbaa !45
  %55 = sub i64 %51, %54
  %56 = mul i64 %55, 32
  call void @llvm.memset.p0.i64(ptr align 8 %50, i8 0, i64 %56, i1 false)
  br label %57

57:                                               ; preds = %45
  br label %58

58:                                               ; preds = %57
  br label %59

59:                                               ; preds = %58
  %60 = load ptr, ptr %4, align 8, !tbaa !10
  %61 = getelementptr inbounds nuw %struct.case_infos_t, ptr %60, i32 0, i32 1
  %62 = load i64, ptr %61, align 8, !tbaa !47
  %63 = load ptr, ptr %4, align 8, !tbaa !10
  %64 = getelementptr inbounds nuw %struct.case_infos_t, ptr %63, i32 0, i32 2
  %65 = load i64, ptr %64, align 8, !tbaa !44
  %66 = add i64 %62, %65
  %67 = load ptr, ptr %4, align 8, !tbaa !10
  %68 = getelementptr inbounds nuw %struct.case_infos_t, ptr %67, i32 0, i32 3
  %69 = load i64, ptr %68, align 8, !tbaa !45
  %70 = icmp ugt i64 %66, %69
  br i1 %70, label %71, label %101

71:                                               ; preds = %59
  call void @llvm.lifetime.start.p0(i64 8, ptr %8) #12
  %72 = load ptr, ptr %4, align 8, !tbaa !10
  %73 = getelementptr inbounds nuw %struct.case_infos_t, ptr %72, i32 0, i32 3
  %74 = load i64, ptr %73, align 8, !tbaa !45
  %75 = load ptr, ptr %4, align 8, !tbaa !10
  %76 = getelementptr inbounds nuw %struct.case_infos_t, ptr %75, i32 0, i32 1
  %77 = load i64, ptr %76, align 8, !tbaa !47
  %78 = sub i64 %74, %77
  store i64 %78, ptr %8, align 8, !tbaa !22
  call void @llvm.lifetime.start.p0(i64 8, ptr %9) #12
  %79 = load i64, ptr %5, align 8, !tbaa !22
  %80 = load i64, ptr %8, align 8, !tbaa !22
  %81 = sub i64 %79, %80
  store i64 %81, ptr %9, align 8, !tbaa !22
  br label %82

82:                                               ; preds = %71
  br label %83

83:                                               ; preds = %82
  br label %84

84:                                               ; preds = %83
  %85 = load ptr, ptr %7, align 8, !tbaa !10
  %86 = load i64, ptr %9, align 8, !tbaa !22
  %87 = getelementptr inbounds nuw %struct.case_info, ptr %85, i64 %86
  %88 = load ptr, ptr %7, align 8, !tbaa !10
  %89 = load ptr, ptr %4, align 8, !tbaa !10
  %90 = getelementptr inbounds nuw %struct.case_infos_t, ptr %89, i32 0, i32 1
  %91 = load i64, ptr %90, align 8, !tbaa !47
  %92 = getelementptr inbounds nuw %struct.case_info, ptr %88, i64 %91
  %93 = load i64, ptr %8, align 8, !tbaa !22
  %94 = mul i64 %93, 32
  call void @llvm.memmove.p0.p0.i64(ptr align 8 %87, ptr align 8 %92, i64 %94, i1 false)
  br label %95

95:                                               ; preds = %84
  br label %96

96:                                               ; preds = %95
  br label %97

97:                                               ; preds = %96
  %98 = load i64, ptr %9, align 8, !tbaa !22
  %99 = load ptr, ptr %4, align 8, !tbaa !10
  %100 = getelementptr inbounds nuw %struct.case_infos_t, ptr %99, i32 0, i32 1
  store i64 %98, ptr %100, align 8, !tbaa !47
  call void @llvm.lifetime.end.p0(i64 8, ptr %9) #12
  call void @llvm.lifetime.end.p0(i64 8, ptr %8) #12
  br label %101

101:                                              ; preds = %97, %59
  %102 = load ptr, ptr %7, align 8, !tbaa !10
  %103 = load ptr, ptr %4, align 8, !tbaa !10
  %104 = getelementptr inbounds nuw %struct.case_infos_t, ptr %103, i32 0, i32 0
  store ptr %102, ptr %104, align 8, !tbaa !46
  %105 = load i64, ptr %5, align 8, !tbaa !22
  %106 = load ptr, ptr %4, align 8, !tbaa !10
  %107 = getelementptr inbounds nuw %struct.case_infos_t, ptr %106, i32 0, i32 3
  store i64 %105, ptr %107, align 8, !tbaa !45
  store i32 0, ptr %6, align 4
  br label %108

108:                                              ; preds = %101, %44
  call void @llvm.lifetime.end.p0(i64 8, ptr %7) #12
  br label %109

109:                                              ; preds = %108, %34
  call void @llvm.lifetime.end.p0(i64 8, ptr %5) #12
  %110 = load i32, ptr %6, align 4
  switch i32 %110, label %138 [
    i32 0, label %111
    i32 1, label %136
  ]

111:                                              ; preds = %109
  br label %112

112:                                              ; preds = %111, %2
  call void @llvm.lifetime.start.p0(i64 8, ptr %10) #12
  %113 = load ptr, ptr %4, align 8, !tbaa !10
  %114 = getelementptr inbounds nuw %struct.case_infos_t, ptr %113, i32 0, i32 1
  %115 = load i64, ptr %114, align 8, !tbaa !47
  %116 = load ptr, ptr %4, align 8, !tbaa !10
  %117 = getelementptr inbounds nuw %struct.case_infos_t, ptr %116, i32 0, i32 2
  %118 = load i64, ptr %117, align 8, !tbaa !44
  %119 = add i64 %115, %118
  %120 = load ptr, ptr %4, align 8, !tbaa !10
  %121 = getelementptr inbounds nuw %struct.case_infos_t, ptr %120, i32 0, i32 3
  %122 = load i64, ptr %121, align 8, !tbaa !45
  %123 = urem i64 %119, %122
  store i64 %123, ptr %10, align 8, !tbaa !22
  br label %124

124:                                              ; preds = %112
  br label %125

125:                                              ; preds = %124
  br label %126

126:                                              ; preds = %125
  %127 = load ptr, ptr %4, align 8, !tbaa !10
  %128 = getelementptr inbounds nuw %struct.case_infos_t, ptr %127, i32 0, i32 0
  %129 = load ptr, ptr %128, align 8, !tbaa !46
  %130 = load i64, ptr %10, align 8, !tbaa !22
  %131 = getelementptr inbounds nuw %struct.case_info, ptr %129, i64 %130
  call void @llvm.memcpy.p0.p0.i64(ptr align 8 %131, ptr align 8 %1, i64 32, i1 false), !tbaa.struct !49
  %132 = load ptr, ptr %4, align 8, !tbaa !10
  %133 = getelementptr inbounds nuw %struct.case_infos_t, ptr %132, i32 0, i32 2
  %134 = load i64, ptr %133, align 8, !tbaa !44
  %135 = add i64 %134, 1
  store i64 %135, ptr %133, align 8, !tbaa !44
  store i32 0, ptr %3, align 4
  store i32 1, ptr %6, align 4
  call void @llvm.lifetime.end.p0(i64 8, ptr %10) #12
  br label %136

136:                                              ; preds = %126, %109
  %137 = load i32, ptr %3, align 4
  ret i32 %137

138:                                              ; preds = %109
  unreachable
}

; Function Attrs: inlinehint nounwind uwtable
define internal void @case_infos_append(ptr noundef %0, ptr noundef byval(%struct.case_info) align 8 %1) #6 {
  %3 = alloca ptr, align 8
  %4 = alloca i32, align 4
  store ptr %0, ptr %3, align 8, !tbaa !10
  call void @llvm.lifetime.start.p0(i64 4, ptr %4) #12
  %5 = load ptr, ptr %3, align 8, !tbaa !10
  %6 = call i32 @case_infos_try_append(ptr noundef %5, ptr noundef byval(%struct.case_info) align 8 %1)
  store i32 %6, ptr %4, align 4, !tbaa !8
  %7 = load i32, ptr %4, align 4, !tbaa !8
  %8 = icmp ne i32 %7, 0
  br i1 %8, label %9, label %14

9:                                                ; preds = %2
  %10 = load ptr, ptr @stderr, align 8, !tbaa !11
  %11 = load i32, ptr %4, align 4, !tbaa !8
  %12 = call ptr @strerror(i32 noundef %11) #12
  %13 = call i32 (ptr, ptr, ...) @fprintf(ptr noundef %10, ptr noundef @.str.22, ptr noundef %12) #12
  call void @graphviz_exit(i32 noundef 1) #16
  unreachable

14:                                               ; preds = %2
  call void @llvm.lifetime.end.p0(i64 4, ptr %4) #12
  ret void
}

; Function Attrs: nounwind uwtable
define internal void @addCase(ptr noundef %0, ptr noundef %1, i32 noundef %2, ptr noundef %3, i32 noundef %4) #0 {
  %6 = alloca ptr, align 8
  %7 = alloca ptr, align 8
  %8 = alloca i32, align 4
  %9 = alloca ptr, align 8
  %10 = alloca i32, align 4
  %11 = alloca %struct.case_info, align 8
  store ptr %0, ptr %6, align 8, !tbaa !10
  store ptr %1, ptr %7, align 8, !tbaa !3
  store i32 %2, ptr %8, align 4, !tbaa !8
  store ptr %3, ptr %9, align 8, !tbaa !3
  store i32 %4, ptr %10, align 4, !tbaa !8
  %12 = load ptr, ptr %7, align 8, !tbaa !3
  %13 = icmp ne ptr %12, null
  br i1 %13, label %19, label %14

14:                                               ; preds = %5
  %15 = load ptr, ptr %9, align 8, !tbaa !3
  %16 = icmp ne ptr %15, null
  br i1 %16, label %19, label %17

17:                                               ; preds = %14
  %18 = load i32, ptr @kwLine, align 4, !tbaa !8
  call void (i32, ptr, ...) @error(i32 noundef 1, ptr noundef @.str.23, i32 noundef %18)
  br label %41

19:                                               ; preds = %14, %5
  call void @llvm.lifetime.start.p0(i64 32, ptr %11) #12
  %20 = getelementptr inbounds nuw %struct.case_info, ptr %11, i32 0, i32 0
  store i32 0, ptr %20, align 8, !tbaa !32
  %21 = getelementptr i8, ptr %11, i64 4
  call void @llvm.memset.p0.i64(ptr align 4 %21, i8 0, i64 4, i1 false)
  %22 = getelementptr inbounds nuw %struct.case_info, ptr %11, i32 0, i32 1
  %23 = load ptr, ptr %7, align 8, !tbaa !3
  store ptr %23, ptr %22, align 8, !tbaa !34
  %24 = getelementptr inbounds nuw %struct.case_info, ptr %11, i32 0, i32 2
  store i32 0, ptr %24, align 8, !tbaa !35
  %25 = getelementptr i8, ptr %11, i64 20
  call void @llvm.memset.p0.i64(ptr align 4 %25, i8 0, i64 4, i1 false)
  %26 = getelementptr inbounds nuw %struct.case_info, ptr %11, i32 0, i32 3
  %27 = load ptr, ptr %9, align 8, !tbaa !3
  store ptr %27, ptr %26, align 8, !tbaa !36
  %28 = load ptr, ptr %7, align 8, !tbaa !3
  %29 = icmp ne ptr %28, null
  br i1 %29, label %30, label %33

30:                                               ; preds = %19
  %31 = load i32, ptr %8, align 4, !tbaa !8
  %32 = getelementptr inbounds nuw %struct.case_info, ptr %11, i32 0, i32 0
  store i32 %31, ptr %32, align 8, !tbaa !32
  br label %33

33:                                               ; preds = %30, %19
  %34 = load ptr, ptr %9, align 8, !tbaa !3
  %35 = icmp ne ptr %34, null
  br i1 %35, label %36, label %39

36:                                               ; preds = %33
  %37 = load i32, ptr %10, align 4, !tbaa !8
  %38 = getelementptr inbounds nuw %struct.case_info, ptr %11, i32 0, i32 2
  store i32 %37, ptr %38, align 8, !tbaa !35
  br label %39

39:                                               ; preds = %36, %33
  %40 = load ptr, ptr %6, align 8, !tbaa !10
  call void @case_infos_append(ptr noundef %40, ptr noundef byval(%struct.case_info) align 8 %11)
  call void @llvm.lifetime.end.p0(i64 32, ptr %11) #12
  br label %41

41:                                               ; preds = %39, %17
  ret void
}