; Function Attrs: nounwind uwtable
define internal fastcc void @addCase(ptr noundef nonnull captures(none) %0, ptr noundef %1, i32 noundef %2, ptr noundef %3, i32 noundef %4) unnamed_addr #0 {
  %6 = icmp ne ptr %1, null
  %7 = icmp ne ptr %3, null
  %or.cond = or i1 %6, %7
  br i1 %or.cond, label %10, label %8

8:                                                ; preds = %5
  %9 = load i32, ptr @kwLine, align 4, !tbaa !3
  tail call void (i32, ptr, ...) @error(i32 noundef 1, ptr noundef nonnull @.str.23, i32 noundef %9) #16
  br label %55

10:                                               ; preds = %5
  %spec.select = select i1 %6, i32 %2, i32 0
  %.sroa.7.0 = select i1 %7, i32 %4, i32 0
  %11 = getelementptr inbounds nuw i8, ptr %0, i64 16
  %12 = load i64, ptr %11, align 8, !tbaa !21
  %13 = getelementptr inbounds nuw i8, ptr %0, i64 24
  %14 = load i64, ptr %13, align 8, !tbaa !22
  %15 = icmp eq i64 %12, %14
  br i1 %15, label %16, label %._crit_edge.i.i

._crit_edge.i.i:                                  ; preds = %10
  %.phi.trans.insert.i.i = getelementptr inbounds nuw i8, ptr %0, i64 8
  %.pre.i.i = load i64, ptr %.phi.trans.insert.i.i, align 8, !tbaa !23
  %.pre45.i.i = load ptr, ptr %0, align 8, !tbaa !24
  br label %case_infos_append.exit

16:                                               ; preds = %10
  %17 = icmp eq i64 %12, 0
  %18 = shl i64 %12, 1
  %spec.select.i.i = select i1 %17, i64 1, i64 %18
  %mul.ov.i.i = icmp ugt i64 %spec.select.i.i, 576460752303423487
  br i1 %mul.ov.i.i, label %42, label %19

19:                                               ; preds = %16
  %20 = load ptr, ptr %0, align 8, !tbaa !24
  %21 = shl nuw i64 %spec.select.i.i, 5
  %22 = tail call ptr @realloc(ptr noundef %20, i64 noundef %21) #18
  %23 = icmp eq ptr %22, null
  br i1 %23, label %42, label %24

24:                                               ; preds = %19
  %25 = load i64, ptr %13, align 8, !tbaa !22
  %26 = getelementptr inbounds nuw %struct.case_info, ptr %22, i64 %25
  %27 = sub i64 %spec.select.i.i, %25
  %28 = shl i64 %27, 5
  tail call void @llvm.memset.p0.i64(ptr nonnull align 8 %26, i8 0, i64 %28, i1 false)
  %29 = getelementptr inbounds nuw i8, ptr %0, i64 8
  %30 = load i64, ptr %29, align 8, !tbaa !23
  %31 = load i64, ptr %11, align 8, !tbaa !21
  %32 = add i64 %31, %30
  %33 = icmp ugt i64 %32, %25
  br i1 %33, label %34, label %40

34:                                               ; preds = %24
  %35 = sub i64 %25, %30
  %36 = sub i64 %spec.select.i.i, %35
  %37 = getelementptr inbounds nuw %struct.case_info, ptr %22, i64 %36
  %38 = getelementptr inbounds nuw %struct.case_info, ptr %22, i64 %30
  %39 = shl i64 %35, 5
  tail call void @llvm.memmove.p0.p0.i64(ptr nonnull align 8 %37, ptr nonnull align 8 %38, i64 %39, i1 false)
  store i64 %36, ptr %29, align 8, !tbaa !23
  br label %40

40:                                               ; preds = %34, %24
  %41 = phi i64 [ %30, %24 ], [ %36, %34 ]
  store ptr %22, ptr %0, align 8, !tbaa !24
  store i64 %spec.select.i.i, ptr %13, align 8, !tbaa !22
  br label %case_infos_append.exit

42:                                               ; preds = %19, %16
  %.2.i.ph.i = phi i32 [ 34, %16 ], [ 12, %19 ]
  %43 = load ptr, ptr @stderr, align 8, !tbaa !17
  %44 = tail call ptr @strerror(i32 noundef %.2.i.ph.i) #16
  %45 = tail call i32 (ptr, ptr, ...) @fprintf(ptr noundef %43, ptr noundef nonnull @.str.22, ptr noundef %44) #19
  tail call fastcc void @graphviz_exit() #20
  unreachable

case_infos_append.exit:                           ; preds = %._crit_edge.i.i, %40
  %46 = phi ptr [ %.pre45.i.i, %._crit_edge.i.i ], [ %22, %40 ]
  %47 = phi i64 [ %14, %._crit_edge.i.i ], [ %spec.select.i.i, %40 ]
  %48 = phi i64 [ %12, %._crit_edge.i.i ], [ %31, %40 ]
  %49 = phi i64 [ %.pre.i.i, %._crit_edge.i.i ], [ %41, %40 ]
  %50 = add i64 %49, %48
  %51 = urem i64 %50, %47
  %52 = getelementptr inbounds nuw %struct.case_info, ptr %46, i64 %51
  store i32 %spec.select, ptr %52, align 8
  %.sroa.4.0..sroa_idx = getelementptr inbounds nuw i8, ptr %52, i64 4
  store i32 0, ptr %.sroa.4.0..sroa_idx, align 4
  %.sroa.510.0..sroa_idx = getelementptr inbounds nuw i8, ptr %52, i64 8
  store ptr %1, ptr %.sroa.510.0..sroa_idx, align 8
  %.sroa.611.0..sroa_idx = getelementptr inbounds nuw i8, ptr %52, i64 16
  store i32 %.sroa.7.0, ptr %.sroa.611.0..sroa_idx, align 8
  %.sroa.712.0..sroa_idx = getelementptr inbounds nuw i8, ptr %52, i64 20
  store i32 0, ptr %.sroa.712.0..sroa_idx, align 4
  %.sroa.8.0..sroa_idx = getelementptr inbounds nuw i8, ptr %52, i64 24
  store ptr %3, ptr %.sroa.8.0..sroa_idx, align 8
  %53 = load i64, ptr %11, align 8, !tbaa !21
  %54 = add i64 %53, 1
  store i64 %54, ptr %11, align 8, !tbaa !21
  br label %55

55:                                               ; preds = %case_infos_append.exit, %8
  ret void
}